target datalayout = "e-m:e-p270:32:32-p271:32:32-p272:64:64-i64:64-i128:128-f80:128-n8:16:32:64-S128"
target triple = "x86_64-pc-linux-gnu"

%struct.PJconsts = type { ptr, ptr, ptr, ptr, ptr, ptr, ptr, ptr, ptr, ptr, ptr, ptr, i32, ptr, ptr, ptr, ptr, ptr, ptr, ptr, ptr, double, double, double, double, double, double, double, double, double, double, double, double, double, double, double, double, double, double, double, double, double, double, i32, i32, i32, i32, i32, i32, i32, i32, i32, i32, i32, ptr, ptr, ptr, ptr, ptr, ptr, double, double, double, double, double, double, double, double, double, double, double, i32, [7 x double], i32, ptr, ptr, double, double, i32, [4 x i8], %"class.std::shared_ptr", i8, double, i8, %"class.std::__cxx11::basic_string", %"class.std::__cxx11::basic_string", %"class.std::__cxx11::basic_string", i8, %"class.std::vector", i32, %"class.std::vector.3", i32, i8, i8, i8, ptr }
%"class.std::shared_ptr" = type { %"class.std::__shared_ptr" }
%"class.std::__shared_ptr" = type { ptr, %"class.std::__shared_count" }
%"class.std::__shared_count" = type { ptr }
%"class.std::__cxx11::basic_string" = type { %"struct.std::__cxx11::basic_string<char>::_Alloc_hider", i64, %union.anon }
%"struct.std::__cxx11::basic_string<char>::_Alloc_hider" = type { ptr }
%union.anon = type { i64, [8 x i8] }
%"class.std::vector" = type { %"struct.std::_Vector_base" }
%"struct.std::_Vector_base" = type { %"struct.std::_Vector_base<osgeo::proj::operation::GridDescription, std::allocator<osgeo::proj::operation::GridDescription>>::_Vector_impl" }
%"struct.std::_Vector_base<osgeo::proj::operation::GridDescription, std::allocator<osgeo::proj::operation::GridDescription>>::_Vector_impl" = type { %"struct.std::_Vector_base<osgeo::proj::operation::GridDescription, std::allocator<osgeo::proj::operation::GridDescription>>::_Vector_impl_data" }
%"struct.std::_Vector_base<osgeo::proj::operation::GridDescription, std::allocator<osgeo::proj::operation::GridDescription>>::_Vector_impl_data" = type { ptr, ptr, ptr }
%"class.std::vector.3" = type { %"struct.std::_Vector_base.4" }
%"struct.std::_Vector_base.4" = type { %"struct.std::_Vector_base<PJCoordOperation, std::allocator<PJCoordOperation>>::_Vector_impl" }
%"struct.std::_Vector_base<PJCoordOperation, std::allocator<PJCoordOperation>>::_Vector_impl" = type { %"struct.std::_Vector_base<PJCoordOperation, std::allocator<PJCoordOperation>>::_Vector_impl_data" }
%"struct.std::_Vector_base<PJCoordOperation, std::allocator<PJCoordOperation>>::_Vector_impl_data" = type { ptr, ptr, ptr }
%"struct.(anonymous namespace)::pj_bonne_data" = type { double, double, double, double, ptr }
%struct.PJ_LP = type { double, double }
%struct.PJ_XY = type { double, double }

; Function Attrs: mustprogress uwtable
define internal { double, double } @_ZL15bonne_e_inverse5PJ_XYP8PJconsts(double %0, double %1, ptr noundef %2) #0 {
  %4 = alloca %struct.PJ_LP, align 8
  %5 = alloca %struct.PJ_XY, align 8
  %6 = alloca ptr, align 8
  %7 = alloca ptr, align 8
  %8 = alloca double, align 8
  %9 = alloca double, align 8
  %10 = alloca double, align 8
  %11 = alloca double, align 8
  %12 = alloca i32, align 4
  %13 = getelementptr inbounds nuw { double, double }, ptr %5, i32 0, i32 0
  store double %0, ptr %13, align 8
  %14 = getelementptr inbounds nuw { double, double }, ptr %5, i32 0, i32 1
  store double %1, ptr %14, align 8
  store ptr %2, ptr %6, align 8, !tbaa !3
  call void @llvm.memset.p0.i64(ptr align 8 %4, i8 0, i64 16, i1 false)
  call void @llvm.lifetime.start.p0(i64 8, ptr %7) #8
  %15 = load ptr, ptr %6, align 8, !tbaa !3
  %16 = getelementptr inbounds nuw %struct.PJconsts, ptr %15, i32 0, i32 11
  %17 = load ptr, ptr %16, align 8, !tbaa !43
  store ptr %17, ptr %7, align 8, !tbaa !41
  %18 = load ptr, ptr %7, align 8, !tbaa !41
  %19 = getelementptr inbounds nuw %"struct.(anonymous namespace)::pj_bonne_data", ptr %18, i32 0, i32 2
  %20 = load double, ptr %19, align 8, !tbaa !55
  %21 = getelementptr inbounds nuw %struct.PJ_XY, ptr %5, i32 0, i32 1
  %22 = load double, ptr %21, align 8, !tbaa !61
  %23 = fsub double %20, %22
  %24 = getelementptr inbounds nuw %struct.PJ_XY, ptr %5, i32 0, i32 1
  store double %23, ptr %24, align 8, !tbaa !61
  call void @llvm.lifetime.start.p0(i64 8, ptr %8) #8
  %25 = getelementptr inbounds nuw %struct.PJ_XY, ptr %5, i32 0, i32 0
  %26 = load double, ptr %25, align 8, !tbaa !63
  %27 = getelementptr inbounds nuw %struct.PJ_XY, ptr %5, i32 0, i32 1
  %28 = load double, ptr %27, align 8, !tbaa !61
  %29 = call double @hypot(double noundef %26, double noundef %28) #8, !tbaa !54
  %30 = load ptr, ptr %7, align 8, !tbaa !41
  %31 = getelementptr inbounds nuw %"struct.(anonymous namespace)::pj_bonne_data", ptr %30, i32 0, i32 0
  %32 = load double, ptr %31, align 8, !tbaa !48
  %33 = call double @llvm.copysign.f64(double %29, double %32)
  store double %33, ptr %8, align 8, !tbaa !56
  %34 = load ptr, ptr %7, align 8, !tbaa !41
  %35 = getelementptr inbounds nuw %"struct.(anonymous namespace)::pj_bonne_data", ptr %34, i32 0, i32 2
  %36 = load double, ptr %35, align 8, !tbaa !55
  %37 = load ptr, ptr %7, align 8, !tbaa !41
  %38 = getelementptr inbounds nuw %"struct.(anonymous namespace)::pj_bonne_data", ptr %37, i32 0, i32 3
  %39 = load double, ptr %38, align 8, !tbaa !57
  %40 = fadd double %36, %39
  %41 = load double, ptr %8, align 8, !tbaa !56
  %42 = fsub double %40, %41
  %43 = load ptr, ptr %7, align 8, !tbaa !41
  %44 = getelementptr inbounds nuw %"struct.(anonymous namespace)::pj_bonne_data", ptr %43, i32 0, i32 4
  %45 = load ptr, ptr %44, align 8, !tbaa !53
  %46 = call noundef double @_Z11pj_inv_mlfndPKd(double noundef %42, ptr noundef %45)
  %47 = getelementptr inbounds nuw %struct.PJ_LP, ptr %4, i32 0, i32 1
  store double %46, ptr %47, align 8, !tbaa !64
  call void @llvm.lifetime.start.p0(i64 8, ptr %9) #8
  %48 = getelementptr inbounds nuw %struct.PJ_LP, ptr %4, i32 0, i32 1
  %49 = load double, ptr %48, align 8, !tbaa !64
  %50 = call double @llvm.fabs.f64(double %49)
  store double %50, ptr %9, align 8, !tbaa !56
  %51 = load double, ptr %9, align 8, !tbaa !56
  %52 = fcmp olt double %51, 0x3FF921FB54442D18
  br i1 %52, label %53, label %97

53:                                               ; preds = %3
  call void @llvm.lifetime.start.p0(i64 8, ptr %10) #8
  %54 = getelementptr inbounds nuw %struct.PJ_LP, ptr %4, i32 0, i32 1
  %55 = load double, ptr %54, align 8, !tbaa !64
  %56 = call double @sin(double noundef %55) #8, !tbaa !54
  store double %56, ptr %10, align 8, !tbaa !56
  call void @llvm.lifetime.start.p0(i64 8, ptr %11) #8
  %57 = load double, ptr %8, align 8, !tbaa !56
  %58 = load ptr, ptr %6, align 8, !tbaa !3
  %59 = getelementptr inbounds nuw %struct.PJconsts, ptr %58, i32 0, i32 27
  %60 = load double, ptr %59, align 8, !tbaa !51
  %61 = load double, ptr %10, align 8, !tbaa !56
  %62 = fmul double %60, %61
  %63 = load double, ptr %10, align 8, !tbaa !56
  %64 = fneg double %62
  %65 = call double @llvm.fmuladd.f64(double %64, double %63, double 1.000000e+00)
  %66 = call double @sqrt(double noundef %65) #8, !tbaa !54
  %67 = fmul double %57, %66
  %68 = getelementptr inbounds nuw %struct.PJ_LP, ptr %4, i32 0, i32 1
  %69 = load double, ptr %68, align 8, !tbaa !64
  %70 = call double @cos(double noundef %69) #8, !tbaa !54
  %71 = fdiv double %67, %70
  store double %71, ptr %11, align 8, !tbaa !56
  %72 = load ptr, ptr %7, align 8, !tbaa !41
  %73 = getelementptr inbounds nuw %"struct.(anonymous namespace)::pj_bonne_data", ptr %72, i32 0, i32 0
  %74 = load double, ptr %73, align 8, !tbaa !48
  %75 = fcmp ogt double %74, 0.000000e+00
  br i1 %75, label %76, label %85

76:                                               ; preds = %53
  %77 = load double, ptr %11, align 8, !tbaa !56
  %78 = getelementptr inbounds nuw %struct.PJ_XY, ptr %5, i32 0, i32 0
  %79 = load double, ptr %78, align 8, !tbaa !63
  %80 = getelementptr inbounds nuw %struct.PJ_XY, ptr %5, i32 0, i32 1
  %81 = load double, ptr %80, align 8, !tbaa !61
  %82 = call double @atan2(double noundef %79, double noundef %81) #8, !tbaa !54
  %83 = fmul double %77, %82
  %84 = getelementptr inbounds nuw %struct.PJ_LP, ptr %4, i32 0, i32 0
  store double %83, ptr %84, align 8, !tbaa !66
  br label %96

85:                                               ; preds = %53
  %86 = load double, ptr %11, align 8, !tbaa !56
  %87 = getelementptr inbounds nuw %struct.PJ_XY, ptr %5, i32 0, i32 0
  %88 = load double, ptr %87, align 8, !tbaa !63
  %89 = fneg double %88
  %90 = getelementptr inbounds nuw %struct.PJ_XY, ptr %5, i32 0, i32 1
  %91 = load double, ptr %90, align 8, !tbaa !61
  %92 = fneg double %91
  %93 = call double @atan2(double noundef %89, double noundef %92) #8, !tbaa !54
  %94 = fmul double %86, %93
  %95 = getelementptr inbounds nuw %struct.PJ_LP, ptr %4, i32 0, i32 0
  store double %94, ptr %95, align 8, !tbaa !66
  br label %96

96:                                               ; preds = %85, %76
  call void @llvm.lifetime.end.p0(i64 8, ptr %11) #8
  call void @llvm.lifetime.end.p0(i64 8, ptr %10) #8
  br label %107

97:                                               ; preds = %3
  %98 = load double, ptr %9, align 8, !tbaa !56
  %99 = fsub double %98, 0x3FF921FB54442D18
  %100 = fcmp ole double %99, 1.000000e-10
  br i1 %100, label %101, label %103

101:                                              ; preds = %97
  %102 = getelementptr inbounds nuw %struct.PJ_LP, ptr %4, i32 0, i32 0
  store double 0.000000e+00, ptr %102, align 8, !tbaa !66
  br label %106

103:                                              ; preds = %97
  %104 = load ptr, ptr %6, align 8, !tbaa !3
  %105 = call i32 @proj_errno_set(ptr noundef %104, i32 noundef 2050)
  store i32 1, ptr %12, align 4
  br label %108

106:                                              ; preds = %101
  br label %107

107:                                              ; preds = %106, %96
  store i32 1, ptr %12, align 4
  br label %108

108:                                              ; preds = %107, %103
  call void @llvm.lifetime.end.p0(i64 8, ptr %9) #8
  call void @llvm.lifetime.end.p0(i64 8, ptr %8) #8
  call void @llvm.lifetime.end.p0(i64 8, ptr %7) #8
  %109 = load { double, double }, ptr %4, align 8
  ret { double, double } %109
}