; Function Attrs: mustprogress uwtable
define internal { double, double } @_ZL15bonne_e_inverse5PJ_XYP8PJconsts(double %0, double %1, ptr noundef %2) #0 {
  %4 = getelementptr inbounds nuw i8, ptr %2, i64 88
  %5 = load ptr, ptr %4, align 8, !tbaa !40
  %6 = getelementptr inbounds nuw i8, ptr %5, i64 16
  %7 = load double, ptr %6, align 8, !tbaa !51
  %8 = fsub double %7, %1
  %9 = tail call double @hypot(double noundef %0, double noundef %8) #8, !tbaa !50
  %10 = load double, ptr %5, align 8, !tbaa !44
  %11 = tail call double @llvm.copysign.f64(double %9, double %10)
  %12 = getelementptr inbounds nuw i8, ptr %5, i64 24
  %13 = load double, ptr %12, align 8, !tbaa !52
  %14 = fadd double %7, %13
  %15 = fsub double %14, %11
  %16 = getelementptr inbounds nuw i8, ptr %5, i64 32
  %17 = load ptr, ptr %16, align 8, !tbaa !47
  %18 = tail call noundef double @_Z11pj_inv_mlfndPKd(double noundef %15, ptr noundef %17)
  %19 = tail call double @llvm.fabs.f64(double %18)
  %20 = fcmp olt double %19, 0x3FF921FB54442D18
  br i1 %20, label %21, label %41

21:                                               ; preds = %3
  %22 = tail call double @sin(double noundef %18) #8, !tbaa !50
  %23 = getelementptr inbounds nuw i8, ptr %2, i64 216
  %24 = load double, ptr %23, align 8, !tbaa !48
  %25 = fneg double %22
  %26 = fmul double %24, %25
  %27 = tail call double @llvm.fmuladd.f64(double %26, double %22, double 1.000000e+00)
  %28 = tail call double @sqrt(double noundef %27) #8, !tbaa !50
  %29 = fmul double %11, %28
  %30 = tail call double @cos(double noundef %18) #8, !tbaa !50
  %31 = fdiv double %29, %30
  %32 = load double, ptr %5, align 8, !tbaa !44
  %33 = fcmp ogt double %32, 0.000000e+00
  br i1 %33, label %34, label %36

34:                                               ; preds = %21
  %35 = tail call double @atan2(double noundef %0, double noundef %8) #8, !tbaa !50
  br label %40

36:                                               ; preds = %21
  %37 = fneg double %0
  %38 = fneg double %8
  %39 = tail call double @atan2(double noundef %37, double noundef %38) #8, !tbaa !50
  br label %40

40:                                               ; preds = %36, %34
  %.pn = phi double [ %35, %34 ], [ %39, %36 ]
  %.sroa.022.0 = fmul double %31, %.pn
  br label %46

41:                                               ; preds = %3
  %42 = fadd double %19, 0xBFF921FB54442D18
  %43 = fcmp ugt double %42, 1.000000e-10
  br i1 %43, label %44, label %46

44:                                               ; preds = %41
  %45 = tail call i32 @proj_errno_set(ptr noundef nonnull %2, i32 noundef 2050)
  br label %46

46:                                               ; preds = %40, %41, %44
  %.sroa.022.2 = phi double [ 0.000000e+00, %44 ], [ %.sroa.022.0, %40 ], [ 0.000000e+00, %41 ]
  %.fca.0.insert = insertvalue { double, double } poison, double %.sroa.022.2, 0
  %.fca.1.insert = insertvalue { double, double } %.fca.0.insert, double %18, 1
  ret { double, double } %.fca.1.insert
}